target datalayout = "e-m:e-p270:32:32-p271:32:32-p272:64:64-i64:64-i128:128-f80:128-n8:16:32:64-S128"
target triple = "x86_64-pc-linux-gnu"

; Function Attrs: mustprogress nounwind uwtable
define linkonce_odr dso_local noundef i32 @_Z6duRGBAiiii(i32 noundef %0, i32 noundef %1, i32 noundef %2, i32 noundef %3) #0 comdat {
  %5 = alloca i32, align 4
  %6 = alloca i32, align 4
  %7 = alloca i32, align 4
  %8 = alloca i32, align 4
  store i32 %0, ptr %5, align 4
  store i32 %1, ptr %6, align 4
  store i32 %2, ptr %7, align 4
  store i32 %3, ptr %8, align 4
  %9 = load i32, ptr %5, align 4
  %10 = load i32, ptr %6, align 4
  %11 = shl i32 %10, 8
  %12 = or i32 %9, %11
  %13 = load i32, ptr %7, align 4
  %14 = shl i32 %13, 16
  %15 = or i32 %12, %14
  %16 = load i32, ptr %8, align 4
  %17 = shl i32 %16, 24
  %18 = or i32 %15, %17
  ret i32 %18
}

; Function Attrs: mustprogress uwtable
define dso_local noundef i32 @_ZN15SampleDebugDraw9areaToColEj(ptr noundef nonnull align 8 dereferenceable(8) %0, i32 noundef %1) unnamed_addr #2 align 2 {
  %3 = alloca i32, align 4
  %4 = alloca ptr, align 8
  %5 = alloca i32, align 4
  store ptr %0, ptr %4, align 8
  store i32 %1, ptr %5, align 4
  %6 = load i32, ptr %5, align 4
  switch i32 %6, label %19 [
    i32 0, label %7
    i32 1, label %9
    i32 2, label %11
    i32 3, label %13
    i32 4, label %15
    i32 5, label %17
  ]

7:                                                ; preds = %2
  %8 = call noundef i32 @_Z6duRGBAiiii(i32 noundef 0, i32 noundef 192, i32 noundef 255, i32 noundef 255)
  store i32 %8, ptr %3, align 4
  br label %21

9:                                                ; preds = %2
  %10 = call noundef i32 @_Z6duRGBAiiii(i32 noundef 0, i32 noundef 0, i32 noundef 255, i32 noundef 255)
  store i32 %10, ptr %3, align 4
  br label %21

11:                                               ; preds = %2
  %12 = call noundef i32 @_Z6duRGBAiiii(i32 noundef 50, i32 noundef 20, i32 noundef 12, i32 noundef 255)
  store i32 %12, ptr %3, align 4
  br label %21

13:                                               ; preds = %2
  %14 = call noundef i32 @_Z6duRGBAiiii(i32 noundef 0, i32 noundef 255, i32 noundef 255, i32 noundef 255)
  store i32 %14, ptr %3, align 4
  br label %21

15:                                               ; preds = %2
  %16 = call noundef i32 @_Z6duRGBAiiii(i32 noundef 0, i32 noundef 255, i32 noundef 0, i32 noundef 255)
  store i32 %16, ptr %3, align 4
  br label %21

17:                                               ; preds = %2
  %18 = call noundef i32 @_Z6duRGBAiiii(i32 noundef 255, i32 noundef 255, i32 noundef 0, i32 noundef 255)
  store i32 %18, ptr %3, align 4
  br label %21

19:                                               ; preds = %2
  %20 = call noundef i32 @_Z6duRGBAiiii(i32 noundef 255, i32 noundef 0, i32 noundef 0, i32 noundef 255)
  store i32 %20, ptr %3, align 4
  br label %21

21:                                               ; preds = %19, %17, %15, %13, %11, %9, %7
  %22 = load i32, ptr %3, align 4
  ret i32 %22
}