; Function Attrs: mustprogress nofree norecurse nosync nounwind willreturn memory(none) uwtable
define dso_local noundef i32 @_ZN15SampleDebugDraw9areaToColEj(ptr nocapture nonnull readnone align 8 %0, i32 noundef %1) unnamed_addr #0 align 2 {
  %3 = icmp ult i32 %1, 6
  br i1 %3, label %switch.lookup, label %5

switch.lookup:                                    ; preds = %2
  %4 = zext nneg i32 %1 to i64
  %switch.gep = getelementptr inbounds [6 x i32], ptr @switch.table._ZN15SampleDebugDraw9areaToColEj, i64 0, i64 %4
  %switch.load = load i32, ptr %switch.gep, align 4
  br label %5

5:                                                ; preds = %2, %switch.lookup
  %.0 = phi i32 [ %switch.load, %switch.lookup ], [ -16776961, %2 ]
  ret i32 %.0
}